Certificate:
    Data:
        Version: 3 (0x2)
        Serial Number: 4 (0x4)
        Signature Algorithm: md5WithRSAEncryption
        Issuer: C=DE, L=Solingen, O=Thomas Baum Zertifizierung
        Validity
            Not Before: Mar 10 16:13:46 2012 GMT
            Not After : Mar 10 16:13:46 2015 GMT
        Subject: C=DE, L=Solingen, O=Thomas Baum Zertifizierung, OU=tinyHeb, CN=Thomas Baum
        Subject Public Key Info:
            Public Key Algorithm: rsaEncryption
            RSA Public Key: (2048 bit)
                Modulus (2048 bit):
                    00:e3:fb:2f:e7:35:bf:a5:b7:51:e4:f4:db:e4:2a:
                    5e:84:7b:9b:6e:5b:63:d0:6c:b1:4b:64:e5:89:8a:
                    e3:88:75:67:d6:0b:15:e9:6b:de:1d:2b:e0:e1:fe:
                    0c:b2:95:bb:5e:72:e2:bc:e1:4e:75:d4:4d:e1:c8:
                    21:d8:4e:40:87:02:d3:34:7c:a5:01:0a:49:61:30:
                    c2:ec:a4:52:8a:76:1c:19:b4:a6:2f:3d:60:86:2d:
                    34:cb:2c:9e:cb:0d:20:f1:a4:24:bd:5b:69:36:3b:
                    72:a0:f6:b0:e0:7f:60:72:f1:35:d3:55:1a:a6:44:
                    a2:d3:05:a0:ef:64:3b:f1:70:c8:43:cc:2e:ef:27:
                    41:2c:9f:4a:2f:27:28:72:5e:1e:30:66:ac:dd:e5:
                    9c:e4:e1:f3:dc:04:5d:2c:b2:8a:8e:6c:ec:1d:60:
                    b2:57:15:d9:01:0b:0a:30:72:f9:28:84:bb:5d:f6:
                    4e:64:db:5c:28:7f:96:e9:77:bf:59:e3:2f:35:ce:
                    a4:b3:12:30:bd:d6:7f:54:a8:a1:fd:5c:f9:de:58:
                    41:7f:84:47:a2:9f:0e:af:cb:c5:a6:fe:59:a6:7b:
                    24:17:45:cf:90:ed:e9:87:00:5c:12:57:c2:84:18:
                    ee:69:d3:82:cd:2b:23:6f:5f:ac:de:91:c1:b7:ba:
                    82:7b
                Exponent: 65537 (0x10001)
        X509v3 extensions:
            X509v3 Basic Constraints: 
                CA:FALSE
            Netscape Cert Type: 
                SSL Client, S/MIME
            Netscape Comment: 
                OpenSSL Generated Certificate
            X509v3 Subject Key Identifier: 
                C3:B3:F0:A6:B4:77:0E:03:63:BF:2F:B0:C8:B0:3A:C1:B8:A6:EA:2E
            X509v3 Authority Key Identifier: 
                keyid:67:DE:5B:CB:32:94:18:67:97:9D:85:61:AC:A3:EB:5C:D4:DC:14:93
                DirName:/C=DE/L=Solingen/O=Thomas Baum Zertifizierung
                serial:D7:F8:CD:09:92:FF:7B:35

            X509v3 Subject Alternative Name: 
                email:thomas.baum@arcor.de
    Signature Algorithm: md5WithRSAEncryption
        12:e6:34:fc:7c:4a:cf:27:b0:f8:2f:7b:53:26:69:c1:d3:cb:
        ea:57:a2:45:8b:0a:cf:43:67:db:41:65:61:85:6f:b0:bd:16:
        4a:6f:82:ae:31:28:b7:af:04:19:06:3b:52:ca:19:8e:81:54:
        16:1e:4f:3a:e2:df:12:f7:f4:2f:77:69:da:85:91:1e:88:20:
        51:83:57:dc:5c:0f:46:68:a1:62:54:e1:87:0a:bf:78:ef:0d:
        70:c3:0c:fc:a6:5b:d6:97:bc:39:12:89:2d:53:3d:e8:11:bd:
        67:b4:0d:7d:cd:d5:f5:45:0c:92:7f:d8:ac:39:83:83:9e:53:
        52:ef:f8:1f:53:49:03:1a:ee:b9:07:e5:9c:7d:ad:9b:a4:a8:
        26:73:4f:49:0c:1c:52:da:e5:46:be:bb:83:96:cf:6e:6c:50:
        f8:91:4e:e7:23:ac:13:e0:67:e6:83:c8:07:8c:cb:5f:28:62:
        aa:cd:88:92:7a:23:a0:cd:71:bc:ab:22:71:be:d7:3c:be:e0:
        02:bc:da:0c:90:fd:da:d6:67:2b:5e:fb:51:f9:4d:89:9f:c9:
        39:85:72:30:4f:79:c7:91:23:05:1f:d9:fd:69:a4:59:f4:f9:
        5e:76:ac:ec:ec:15:91:c8:10:da:18:b1:51:8e:50:4a:e0:a7:
        9e:55:91:89
-----BEGIN CERTIFICATE-----
MIIENjCCAx6gAwIBAgIBBDANBgkqhkiG9w0BAQQFADBFMQswCQYDVQQGEwJERTER
MA8GA1UEBxMIU29saW5nZW4xIzAhBgNVBAoTGlRob21hcyBCYXVtIFplcnRpZml6
aWVydW5nMB4XDTEyMDMxMDE2MTM0NloXDTE1MDMxMDE2MTM0NlowbTELMAkGA1UE
BhMCREUxETAPBgNVBAcTCFNvbGluZ2VuMSMwIQYDVQQKExpUaG9tYXMgQmF1bSBa
ZXJ0aWZpemllcnVuZzEQMA4GA1UECxMHdGlueUhlYjEUMBIGA1UEAxMLVGhvbWFz
IEJhdW0wggEiMA0GCSqGSIb3DQEBAQUAA4IBDwAwggEKAoIBAQDj+y/nNb+lt1Hk
9NvkKl6Ee5tuW2PQbLFLZOWJiuOIdWfWCxXpa94dK+Dh/gyylbtecuK84U511E3h
yCHYTkCHAtM0fKUBCklhMMLspFKKdhwZtKYvPWCGLTTLLJ7LDSDxpCS9W2k2O3Kg
9rDgf2By8TXTVRqmRKLTBaDvZDvxcMhDzC7vJ0Esn0ovJyhyXh4wZqzd5Zzk4fPc
BF0ssoqObOwdYLJXFdkBCwowcvkohLtd9k5k21wof5bpd79Z4y81zqSzEjC91n9U
qKH9XPneWEF/hEeinw6vy8Wm/lmmeyQXRc+Q7emHAFwSV8KEGO5p04LNKyNvX6ze
kcG3uoJ7AgMBAAGjggEHMIIBAzAJBgNVHRMEAjAAMBEGCWCGSAGG+EIBAQQEAwIF
oDAsBglghkgBhvhCAQ0EHxYdT3BlblNTTCBHZW5lcmF0ZWQgQ2VydGlmaWNhdGUw
HQYDVR0OBBYEFMOz8Ka0dw4DY78vsMiwOsG4puouMHUGA1UdIwRuMGyAFGfeW8sy
lBhnl52FYayj61zU3BSToUmkRzBFMQswCQYDVQQGEwJERTERMA8GA1UEBxMIU29s
aW5nZW4xIzAhBgNVBAoTGlRob21hcyBCYXVtIFplcnRpZml6aWVydW5nggkA1/jN
CZL/ezUwHwYDVR0RBBgwFoEUdGhvbWFzLmJhdW1AYXJjb3IuZGUwDQYJKoZIhvcN
AQEEBQADggEBABLmNPx8Ss8nsPgve1MmacHTy+pXokWLCs9DZ9tBZWGFb7C9Fkpv
gq4xKLevBBkGO1LKGY6BVBYeTzri3xL39C93adqFkR6IIFGDV9xcD0ZooWJU4YcK
v3jvDXDDDPymW9aXvDkSiS1TPegRvWe0DX3N1fVFDJJ/2Kw5g4OeU1Lv+B9TSQMa
7rkH5Zx9rZukqCZzT0kMHFLa5Ua+u4OWz25sUPiRTucjrBPgZ+aDyAeMy18oYqrN
iJJ6I6DNcbyrInG+1zy+4AK82gyQ/drWZyte+1H5TYmfyTmFcjBPeceRIwUf2f1p
pFn0+V52rOzsFZHIENoYsVGOUErgp55VkYk=
-----END CERTIFICATE-----
