Certificate:
    Data:
        Version: 3 (0x2)
        Serial Number: 45 (0x2d)
        Signature Algorithm: sha256WithRSAEncryption
        Issuer: C=DE, O=Datenaustausch im Gesundheits- und Sozialwesen
        Validity
            Not Before: Dec  4 09:36:23 2013 GMT
            Not After : Jan  3 12:00:00 2019 GMT
        Subject: C=DE, O=ITSG TrustCenter fuer sonstige Leistungserbringer
        Subject Public Key Info:
            Public Key Algorithm: rsaEncryption
                Public-Key: (2048 bit)
                Modulus:
                    00:b5:4d:4d:52:fe:da:38:ea:0d:dd:90:98:84:d3:
                    46:86:16:6b:41:be:84:c6:ea:6d:69:a8:7a:3f:8e:
                    53:14:fe:ee:99:7f:d7:84:95:0d:8b:73:86:8b:f9:
                    1d:fd:1a:a2:68:27:ad:83:02:12:54:c5:8a:21:1f:
                    d0:22:62:5e:5f:10:17:1a:6c:84:29:31:a6:31:22:
                    8f:1a:c6:b0:35:7d:c2:53:b5:cf:8c:38:89:f7:6a:
                    74:f7:f7:12:af:35:9b:c2:ad:a4:a0:6a:54:4f:bb:
                    1e:9e:3b:40:2d:45:31:05:0a:41:48:6d:3f:a9:48:
                    08:64:80:0d:b1:65:56:6c:23:cb:43:6f:47:d7:d5:
                    10:fb:61:ee:a7:b8:b8:63:f5:be:fd:e4:ea:e1:79:
                    1e:f8:d5:4e:ea:43:23:57:1e:99:b1:f8:87:7e:6a:
                    0d:1d:20:84:bb:4e:76:6b:2f:63:11:d0:1c:01:74:
                    04:73:7e:63:31:39:c4:14:2d:a7:0d:38:a6:12:d9:
                    24:fd:74:f0:76:b3:2f:18:d7:d0:64:bb:2a:65:59:
                    f3:db:ee:f6:09:35:54:11:90:62:66:e8:d1:98:ef:
                    58:62:10:ef:b9:05:77:25:e4:8b:0e:0a:44:5d:55:
                    45:5f:54:69:eb:30:89:f0:92:70:f1:72:68:77:54:
                    54:97
                Exponent: 65537 (0x10001)
        X509v3 extensions:
            X509v3 Basic Constraints: 
                CA:TRUE, pathlen:0
            X509v3 Key Usage: 
                Certificate Sign, CRL Sign
            X509v3 Subject Key Identifier: 
                B4:4D:93:8C:B6:B6:62:E1:86:4F:D1:60:D2:78:AE:66:34:E8:EE:77
            X509v3 Authority Key Identifier: 
                DirName:/C=DE/O=Datenaustausch im Gesundheits- und Sozialwesen
                serial:28

    Signature Algorithm: sha256WithRSAEncryption
        02:e8:7c:8c:a3:14:8d:48:85:ef:fd:a3:22:29:f2:1d:6f:96:
        14:c2:8f:d4:1f:98:17:31:28:2a:69:c6:23:bf:6d:89:3d:38:
        25:26:18:d0:48:88:a2:06:16:9d:75:5c:b9:07:8c:50:53:4a:
        ce:10:61:0b:e8:60:19:81:4e:9b:44:5f:2e:f3:75:6a:20:90:
        05:86:ab:fe:f4:07:48:23:8c:50:5a:6f:74:e7:77:ed:c3:b2:
        49:c0:02:01:cc:09:27:00:ed:37:7c:3a:ca:22:fa:b8:4f:ee:
        3c:75:62:bd:10:b4:5d:33:57:05:f5:ba:27:f5:00:18:f0:0c:
        43:f2:e0:a3:1c:9b:d6:d3:64:f8:13:be:0d:c2:a2:73:60:f0:
        07:f8:0b:dd:12:ea:f7:2e:0b:5c:7f:3d:bb:eb:69:11:78:9f:
        ef:00:c7:45:45:04:7e:29:3c:e6:00:0a:cc:f4:22:52:d3:65:
        38:a9:c2:40:1a:ac:25:eb:fc:12:06:76:c9:08:3e:dc:25:09:
        f6:a5:b5:b2:5b:0c:04:27:ba:59:68:97:40:67:dc:a2:bd:df:
        95:b6:8d:7d:da:a6:81:40:83:51:19:c2:3e:10:ed:b7:72:36:
        87:68:2f:75:66:7b:09:29:34:82:52:d9:b1:48:a3:29:9d:45:
        62:ef:66:8d
-----BEGIN CERTIFICATE-----
MIIDpTCCAo2gAwIBAgIBLTANBgkqhkiG9w0BAQsFADBGMQswCQYDVQQGEwJERTE3
MDUGA1UEChMuRGF0ZW5hdXN0YXVzY2ggaW0gR2VzdW5kaGVpdHMtIHVuZCBTb3pp
YWx3ZXNlbjAeFw0xMzEyMDQwOTM2MjNaFw0xOTAxMDMxMjAwMDBaMEkxCzAJBgNV
BAYTAkRFMTowOAYDVQQKEzFJVFNHIFRydXN0Q2VudGVyIGZ1ZXIgc29uc3RpZ2Ug
TGVpc3R1bmdzZXJicmluZ2VyMIIBIjANBgkqhkiG9w0BAQEFAAOCAQ8AMIIBCgKC
AQEAtU1NUv7aOOoN3ZCYhNNGhhZrQb6Exuptaah6P45TFP7umX/XhJUNi3OGi/kd
/RqiaCetgwISVMWKIR/QImJeXxAXGmyEKTGmMSKPGsawNX3CU7XPjDiJ92p09/cS
rzWbwq2koGpUT7senjtALUUxBQpBSG0/qUgIZIANsWVWbCPLQ29H19UQ+2Hup7i4
Y/W+/eTq4Xke+NVO6kMjVx6ZsfiHfmoNHSCEu052ay9jEdAcAXQEc35jMTnEFC2n
DTimEtkk/XTwdrMvGNfQZLsqZVnz2+72CTVUEZBiZujRmO9YYhDvuQV3JeSLDgpE
XVVFX1Rp6zCJ8JJw8XJod1RUlwIDAQABo4GaMIGXMA8GA1UdEwQIMAYBAf8CAQAw
CwYDVR0PBAQDAgEGMB0GA1UdDgQWBBS0TZOMtrZi4YZP0WDSeK5mNOjudzBYBgNV
HSMEUTBPoUqkSDBGMQswCQYDVQQGEwJERTE3MDUGA1UEChMuRGF0ZW5hdXN0YXVz
Y2ggaW0gR2VzdW5kaGVpdHMtIHVuZCBTb3ppYWx3ZXNlboIBKDANBgkqhkiG9w0B
AQsFAAOCAQEAAuh8jKMUjUiF7/2jIinyHW+WFMKP1B+YFzEoKmnGI79tiT04JSYY
0EiIogYWnXVcuQeMUFNKzhBhC+hgGYFOm0RfLvN1aiCQBYar/vQHSCOMUFpvdOd3
7cOyScACAcwJJwDtN3w6yiL6uE/uPHVivRC0XTNXBfW6J/UAGPAMQ/Lgoxyb1tNk
+BO+DcKic2DwB/gL3RLq9y4LXH89u+tpEXif7wDHRUUEfik85gAKzPQiUtNlOKnC
QBqsJev8EgZ2yQg+3CUJ9qW1slsMBCe6WWiXQGfcor3flbaNfdqmgUCDURnCPhDt
t3I2h2gvdWZ7CSk0glLZsUijKZ1FYu9mjQ==
-----END CERTIFICATE-----
